target datalayout = "e-m:e-p270:32:32-p271:32:32-p272:64:64-i64:64-f80:128-n8:16:32:64-S128"
target triple = "x86_64-pc-linux-gnu"

@.str = private unnamed_addr constant [3 x i8] c"%d\00", align 1
@.str.1 = private unnamed_addr constant [3 x i8] c"%s\00", align 1
@.str.2 = private unnamed_addr constant [4 x i8] c"%d\0A\00", align 1
@.str.3 = private unnamed_addr constant [3 x i8] c"%c\00", align 1
@.str.4 = private unnamed_addr constant [2 x i8] c"\0A\00", align 1
@.str.5 = private unnamed_addr constant [3 x i8] c"NO\00", align 1

; Function Attrs: noinline nounwind uwtable
define dso_local i32 @main() #0 {
  %1 = alloca i32, align 4
  %2 = alloca i32, align 4
  %3 = alloca i32, align 4
  %4 = alloca i32, align 4
  %5 = alloca i32, align 4
  %6 = alloca i32, align 4
  %7 = alloca [1000 x i32], align 16
  %8 = alloca i32, align 4
  %9 = alloca i32, align 4
  %10 = alloca [1000 x i8], align 16
  store i32 0, i32* %1, align 4
  store i32 0, i32* %6, align 4
  store i32 0, i32* %8, align 4
  store i32 0, i32* %9, align 4
  %11 = call i32 (i8*, ...) @__isoc99_scanf(i8* getelementptr inbounds ([3 x i8], [3 x i8]* @.str, i64 0, i64 0), i32* %2)
  %12 = getelementptr inbounds [1000 x i8], [1000 x i8]* %10, i64 0, i64 0
  %13 = call i32 (i8*, ...) @__isoc99_scanf(i8* getelementptr inbounds ([3 x i8], [3 x i8]* @.str.1, i64 0, i64 0), i8* %12)
  store i32 0, i32* %3, align 4
  br label %14

14:                                               ; preds = %21, %0
  %15 = load i32, i32* %3, align 4
  %16 = icmp slt i32 %15, 1000
  br i1 %16, label %17, label %24

17:                                               ; preds = %14
  %18 = load i32, i32* %3, align 4
  %19 = sext i32 %18 to i64
  %20 = getelementptr inbounds [1000 x i32], [1000 x i32]* %7, i64 0, i64 %19
  store i32 0, i32* %20, align 4
  br label %21

21:                                               ; preds = %17
  %22 = load i32, i32* %3, align 4
  %23 = add nsw i32 %22, 1
  store i32 %23, i32* %3, align 4
  br label %14

24:                                               ; preds = %14
  store i32 0, i32* %3, align 4
  br label %25

25:                                               ; preds = %97, %24
  %26 = load i32, i32* %3, align 4
  %27 = sext i32 %26 to i64
  %28 = getelementptr inbounds [1000 x i8], [1000 x i8]* %10, i64 0, i64 0
  %29 = call i64 @strlen(i8* %28) #3
  %30 = icmp ult i64 %27, %29
  br i1 %30, label %31, label %100

31:                                               ; preds = %25
  %32 = load i32, i32* %3, align 4
  %33 = add nsw i32 %32, 1
  store i32 %33, i32* %4, align 4
  br label %34

34:                                               ; preds = %93, %31
  %35 = load i32, i32* %4, align 4
  %36 = sext i32 %35 to i64
  %37 = getelementptr inbounds [1000 x i8], [1000 x i8]* %10, i64 0, i64 0
  %38 = call i64 @strlen(i8* %37) #3
  %39 = icmp ult i64 %36, %38
  br i1 %39, label %40, label %96

40:                                               ; preds = %34
  %41 = load i32, i32* %3, align 4
  %42 = sext i32 %41 to i64
  %43 = getelementptr inbounds [1000 x i8], [1000 x i8]* %10, i64 0, i64 %42
  %44 = load i8, i8* %43, align 1
  %45 = sext i8 %44 to i32
  %46 = load i32, i32* %4, align 4
  %47 = sext i32 %46 to i64
  %48 = getelementptr inbounds [1000 x i8], [1000 x i8]* %10, i64 0, i64 %47
  %49 = load i8, i8* %48, align 1
  %50 = sext i8 %49 to i32
  %51 = icmp eq i32 %45, %50
  br i1 %51, label %52, label %92

52:                                               ; preds = %40
  store i32 1, i32* %5, align 4
  br label %53

53:                                               ; preds = %77, %52
  %54 = load i32, i32* %5, align 4
  %55 = load i32, i32* %2, align 4
  %56 = icmp slt i32 %54, %55
  br i1 %56, label %57, label %80

57:                                               ; preds = %53
  %58 = load i32, i32* %3, align 4
  %59 = load i32, i32* %5, align 4
  %60 = add nsw i32 %58, %59
  %61 = sext i32 %60 to i64
  %62 = getelementptr inbounds [1000 x i8], [1000 x i8]* %10, i64 0, i64 %61
  %63 = load i8, i8* %62, align 1
  %64 = sext i8 %63 to i32
  %65 = load i32, i32* %4, align 4
  %66 = load i32, i32* %5, align 4
  %67 = add nsw i32 %65, %66
  %68 = sext i32 %67 to i64
  %69 = getelementptr inbounds [1000 x i8], [1000 x i8]* %10, i64 0, i64 %68
  %70 = load i8, i8* %69, align 1
  %71 = sext i8 %70 to i32
  %72 = icmp eq i32 %64, %71
  br i1 %72, label %73, label %76

73:                                               ; preds = %57
  %74 = load i32, i32* %6, align 4
  %75 = add nsw i32 %74, 1
  store i32 %75, i32* %6, align 4
  br label %76

76:                                               ; preds = %73, %57
  br label %77

77:                                               ; preds = %76
  %78 = load i32, i32* %5, align 4
  %79 = add nsw i32 %78, 1
  store i32 %79, i32* %5, align 4
  br label %53

80:                                               ; preds = %53
  %81 = load i32, i32* %6, align 4
  %82 = load i32, i32* %2, align 4
  %83 = sub nsw i32 %82, 1
  %84 = icmp eq i32 %81, %83
  br i1 %84, label %85, label %91

85:                                               ; preds = %80
  %86 = load i32, i32* %3, align 4
  %87 = sext i32 %86 to i64
  %88 = getelementptr inbounds [1000 x i32], [1000 x i32]* %7, i64 0, i64 %87
  %89 = load i32, i32* %88, align 4
  %90 = add nsw i32 %89, 1
  store i32 %90, i32* %88, align 4
  br label %91

91:                                               ; preds = %85, %80
  br label %92

92:                                               ; preds = %91, %40
  store i32 0, i32* %6, align 4
  br label %93

93:                                               ; preds = %92
  %94 = load i32, i32* %4, align 4
  %95 = add nsw i32 %94, 1
  store i32 %95, i32* %4, align 4
  br label %34

96:                                               ; preds = %34
  br label %97

97:                                               ; preds = %96
  %98 = load i32, i32* %3, align 4
  %99 = add nsw i32 %98, 1
  store i32 %99, i32* %3, align 4
  br label %25

100:                                              ; preds = %25
  store i32 0, i32* %8, align 4
  store i32 0, i32* %3, align 4
  br label %101

101:                                              ; preds = %120, %100
  %102 = load i32, i32* %3, align 4
  %103 = sext i32 %102 to i64
  %104 = getelementptr inbounds [1000 x i8], [1000 x i8]* %10, i64 0, i64 0
  %105 = call i64 @strlen(i8* %104) #3
  %106 = icmp ult i64 %103, %105
  br i1 %106, label %107, label %123

107:                                              ; preds = %101
  %108 = load i32, i32* %3, align 4
  %109 = sext i32 %108 to i64
  %110 = getelementptr inbounds [1000 x i32], [1000 x i32]* %7, i64 0, i64 %109
  %111 = load i32, i32* %110, align 4
  %112 = load i32, i32* %8, align 4
  %113 = icmp sge i32 %111, %112
  br i1 %113, label %114, label %119

114:                                              ; preds = %107
  %115 = load i32, i32* %3, align 4
  %116 = sext i32 %115 to i64
  %117 = getelementptr inbounds [1000 x i32], [1000 x i32]* %7, i64 0, i64 %116
  %118 = load i32, i32* %117, align 4
  store i32 %118, i32* %8, align 4
  br label %119

119:                                              ; preds = %114, %107
  br label %120

120:                                              ; preds = %119
  %121 = load i32, i32* %3, align 4
  %122 = add nsw i32 %121, 1
  store i32 %122, i32* %3, align 4
  br label %101

123:                                              ; preds = %101
  %124 = load i32, i32* %8, align 4
  %125 = icmp ne i32 %124, 0
  br i1 %125, label %126, label %167

126:                                              ; preds = %123
  %127 = load i32, i32* %8, align 4
  %128 = add nsw i32 %127, 1
  %129 = call i32 (i8*, ...) @printf(i8* getelementptr inbounds ([4 x i8], [4 x i8]* @.str.2, i64 0, i64 0), i32 %128)
  store i32 0, i32* %3, align 4
  br label %130

130:                                              ; preds = %163, %126
  %131 = load i32, i32* %3, align 4
  %132 = sext i32 %131 to i64
  %133 = getelementptr inbounds [1000 x i8], [1000 x i8]* %10, i64 0, i64 0
  %134 = call i64 @strlen(i8* %133) #3
  %135 = icmp ult i64 %132, %134
  br i1 %135, label %136, label %166

136:                                              ; preds = %130
  %137 = load i32, i32* %3, align 4
  %138 = sext i32 %137 to i64
  %139 = getelementptr inbounds [1000 x i32], [1000 x i32]* %7, i64 0, i64 %138
  %140 = load i32, i32* %139, align 4
  %141 = load i32, i32* %8, align 4
  %142 = icmp eq i32 %140, %141
  br i1 %142, label %143, label %162

143:                                              ; preds = %136
  store i32 0, i32* %4, align 4
  br label %144

144:                                              ; preds = %157, %143
  %145 = load i32, i32* %4, align 4
  %146 = load i32, i32* %2, align 4
  %147 = icmp slt i32 %145, %146
  br i1 %147, label %148, label %160

148:                                              ; preds = %144
  %149 = load i32, i32* %3, align 4
  %150 = load i32, i32* %4, align 4
  %151 = add nsw i32 %149, %150
  %152 = sext i32 %151 to i64
  %153 = getelementptr inbounds [1000 x i8], [1000 x i8]* %10, i64 0, i64 %152
  %154 = load i8, i8* %153, align 1
  %155 = sext i8 %154 to i32
  %156 = call i32 (i8*, ...) @printf(i8* getelementptr inbounds ([3 x i8], [3 x i8]* @.str.3, i64 0, i64 0), i32 %155)
  br label %157

157:                                              ; preds = %148
  %158 = load i32, i32* %4, align 4
  %159 = add nsw i32 %158, 1
  store i32 %159, i32* %4, align 4
  br label %144

160:                                              ; preds = %144
  %161 = call i32 (i8*, ...) @printf(i8* getelementptr inbounds ([2 x i8], [2 x i8]* @.str.4, i64 0, i64 0))
  br label %162

162:                                              ; preds = %160, %136
  br label %163

163:                                              ; preds = %162
  %164 = load i32, i32* %3, align 4
  %165 = add nsw i32 %164, 1
  store i32 %165, i32* %3, align 4
  br label %130

166:                                              ; preds = %130
  br label %169

167:                                              ; preds = %123
  %168 = call i32 (i8*, ...) @printf(i8* getelementptr inbounds ([3 x i8], [3 x i8]* @.str.5, i64 0, i64 0))
  br label %169

169:                                              ; preds = %167, %166
  ret i32 0
}